; Function Attrs: mustprogress uwtable
define void @_ZN2cv6detail15GainCompensator5applyEiNS_6Point_IiEERKNS_17_InputOutputArrayERKNS_11_InputArrayE(ptr noundef nonnull readonly align 8 captures(none) dereferenceable(152) %0, i32 noundef %1, i64 %2, ptr noundef nonnull align 8 dereferenceable(24) %3, ptr nonnull readnone align 8 captures(none) %4) unnamed_addr #3 align 2 personality ptr @__gxx_personality_v0 {
  %6 = alloca %"class.cv::utils::trace::details::Region", align 8
  %7 = alloca %"class.cv::_InputArray", align 8
  call void @llvm.lifetime.start.p0(i64 16, ptr nonnull %6) #25
  call void @_ZN2cv5utils5trace7details6RegionC1ERKNS3_21LocationStaticStorageE(ptr noundef nonnull align 8 dereferenceable(12) %6, ptr noundef nonnull align 8 dereferenceable(32) @_ZZN2cv6detail15GainCompensator5applyEiNS_6Point_IiEERKNS_17_InputOutputArrayERKNS_11_InputArrayEE25__cv_trace_location_fn283)
  call void @llvm.lifetime.start.p0(i64 24, ptr nonnull %7) #25
  %8 = getelementptr inbounds nuw i8, ptr %0, i64 32
  %9 = load ptr, ptr %8, align 8, !tbaa !151
  %10 = getelementptr inbounds nuw i8, ptr %0, i64 88
  %11 = load ptr, ptr %10, align 8, !tbaa !152
  %12 = load i64, ptr %11, align 8, !tbaa !153
  %13 = sext i32 %1 to i64
  %14 = mul i64 %12, %13
  %15 = getelementptr inbounds nuw i8, ptr %9, i64 %14
  %16 = getelementptr inbounds nuw i8, ptr %7, i64 16
  store i32 -1056833530, ptr %7, align 8, !tbaa !107
  %17 = getelementptr inbounds nuw i8, ptr %7, i64 8
  store ptr %15, ptr %17, align 8, !tbaa !110
  store i64 4294967297, ptr %16, align 8
  invoke void @_ZN2cv8multiplyERKNS_11_InputArrayES2_RKNS_12_OutputArrayEdi(ptr noundef nonnull align 8 dereferenceable(24) %3, ptr noundef nonnull align 8 dereferenceable(24) %7, ptr noundef nonnull align 8 dereferenceable(24) %3, double noundef 1.000000e+00, i32 noundef -1)
          to label %18 unwind label %25

18:                                               ; preds = %5
  call void @llvm.lifetime.end.p0(i64 24, ptr nonnull %7) #25
  %19 = getelementptr inbounds nuw i8, ptr %6, i64 8
  %20 = load i32, ptr %19, align 8, !tbaa !165
  %.not.i = icmp eq i32 %20, 0
  br i1 %.not.i, label %_ZN2cv5utils5trace7details6RegionD2Ev.exit, label %21

21:                                               ; preds = %18
  invoke void @_ZN2cv5utils5trace7details6Region7destroyEv(ptr noundef nonnull align 8 dereferenceable(12) %6)
          to label %_ZN2cv5utils5trace7details6RegionD2Ev.exit unwind label %22

22:                                               ; preds = %21
  %23 = landingpad { ptr, i32 }
          catch ptr null
  %24 = extractvalue { ptr, i32 } %23, 0
  call void @__clang_call_terminate(ptr %24) #28
  unreachable

_ZN2cv5utils5trace7details6RegionD2Ev.exit:       ; preds = %18, %21
  call void @llvm.lifetime.end.p0(i64 16, ptr nonnull %6) #25
  ret void

25:                                               ; preds = %5
  %26 = landingpad { ptr, i32 }
          cleanup
  call void @llvm.lifetime.end.p0(i64 24, ptr nonnull %7) #25
  call void @_ZN2cv5utils5trace7details6RegionD2Ev(ptr noundef nonnull align 8 dereferenceable(12) %6) #25
  call void @llvm.lifetime.end.p0(i64 16, ptr nonnull %6) #25
  resume { ptr, i32 } %26
}